; Function Attrs: nounwind uwtable
define ptr @l_Lean_Meta_mkInstCompleteLatticePProd(ptr noundef %0, ptr noundef %1, ptr noundef %2, ptr noundef %3, ptr noundef %4, ptr noundef %5, ptr noundef %6) #0 {
  tail call void @lean_inc_heartbeat() #4
  %8 = tail call noalias ptr @mi_malloc_small(i64 noundef 16) #4
  %9 = icmp eq ptr %8, null
  br i1 %9, label %10, label %lean_alloc_ctor.exit

10:                                               ; preds = %7
  tail call void @lean_internal_panic_out_of_memory() #5
  unreachable

lean_alloc_ctor.exit:                             ; preds = %7
  %11 = getelementptr inbounds nuw i8, ptr %8, i64 4
  store i32 1, ptr %8, align 4, !tbaa !4
  store i32 16842768, ptr %11, align 4
  %12 = getelementptr inbounds nuw i8, ptr %8, i64 8
  store ptr %0, ptr %12, align 8, !tbaa !10
  tail call void @lean_inc_heartbeat() #4
  %13 = tail call noalias ptr @mi_malloc_small(i64 noundef 16) #4
  %14 = icmp eq ptr %13, null
  br i1 %14, label %15, label %lean_alloc_ctor.exit29

15:                                               ; preds = %lean_alloc_ctor.exit
  tail call void @lean_internal_panic_out_of_memory() #5
  unreachable

lean_alloc_ctor.exit29:                           ; preds = %lean_alloc_ctor.exit
  %16 = getelementptr inbounds nuw i8, ptr %13, i64 4
  store i32 1, ptr %13, align 4, !tbaa !4
  store i32 16842768, ptr %16, align 4
  %17 = getelementptr inbounds nuw i8, ptr %13, i64 8
  store ptr %1, ptr %17, align 8, !tbaa !10
  tail call void @lean_inc_heartbeat() #4
  %18 = tail call noalias ptr @mi_malloc_small(i64 noundef 24) #4
  %19 = icmp eq ptr %18, null
  br i1 %19, label %20, label %lean_alloc_ctor.exit30

20:                                               ; preds = %lean_alloc_ctor.exit29
  tail call void @lean_internal_panic_out_of_memory() #5
  unreachable

lean_alloc_ctor.exit30:                           ; preds = %lean_alloc_ctor.exit29
  %21 = getelementptr inbounds nuw i8, ptr %18, i64 4
  store i32 1, ptr %18, align 4, !tbaa !4
  store i32 16908312, ptr %21, align 4
  %22 = getelementptr inbounds nuw i8, ptr %18, i64 8
  store ptr %13, ptr %22, align 8, !tbaa !10
  %23 = getelementptr inbounds nuw i8, ptr %18, i64 16
  store ptr inttoptr (i64 1 to ptr), ptr %23, align 8, !tbaa !10
  tail call void @lean_inc_heartbeat() #4
  %24 = tail call noalias ptr @mi_malloc_small(i64 noundef 24) #4
  %25 = icmp eq ptr %24, null
  br i1 %25, label %26, label %lean_alloc_ctor.exit31

26:                                               ; preds = %lean_alloc_ctor.exit30
  tail call void @lean_internal_panic_out_of_memory() #5
  unreachable

lean_alloc_ctor.exit31:                           ; preds = %lean_alloc_ctor.exit30
  %27 = getelementptr inbounds nuw i8, ptr %24, i64 4
  store i32 1, ptr %24, align 4, !tbaa !4
  store i32 16908312, ptr %27, align 4
  %28 = getelementptr inbounds nuw i8, ptr %24, i64 8
  store ptr %8, ptr %28, align 8, !tbaa !10
  %29 = getelementptr inbounds nuw i8, ptr %24, i64 16
  store ptr %18, ptr %29, align 8, !tbaa !10
  tail call void @lean_inc_heartbeat() #4
  %30 = tail call noalias ptr @mi_malloc_small(i64 noundef 24) #4
  %31 = icmp eq ptr %30, null
  br i1 %31, label %32, label %lean_alloc_ctor.exit32

32:                                               ; preds = %lean_alloc_ctor.exit31
  tail call void @lean_internal_panic_out_of_memory() #5
  unreachable

lean_alloc_ctor.exit32:                           ; preds = %lean_alloc_ctor.exit31
  %33 = getelementptr inbounds nuw i8, ptr %30, i64 4
  store i32 1, ptr %30, align 4, !tbaa !4
  store i32 16908312, ptr %33, align 4
  %34 = getelementptr inbounds nuw i8, ptr %30, i64 8
  store ptr inttoptr (i64 1 to ptr), ptr %34, align 8, !tbaa !10
  %35 = getelementptr inbounds nuw i8, ptr %30, i64 16
  store ptr %24, ptr %35, align 8, !tbaa !10
  tail call void @lean_inc_heartbeat() #4
  %36 = tail call noalias ptr @mi_malloc_small(i64 noundef 24) #4
  %37 = icmp eq ptr %36, null
  br i1 %37, label %38, label %lean_alloc_ctor.exit33

38:                                               ; preds = %lean_alloc_ctor.exit32
  tail call void @lean_internal_panic_out_of_memory() #5
  unreachable

lean_alloc_ctor.exit33:                           ; preds = %lean_alloc_ctor.exit32
  %39 = getelementptr inbounds nuw i8, ptr %36, i64 4
  store i32 1, ptr %36, align 4, !tbaa !4
  store i32 16908312, ptr %39, align 4
  %40 = getelementptr inbounds nuw i8, ptr %36, i64 8
  store ptr inttoptr (i64 1 to ptr), ptr %40, align 8, !tbaa !10
  %41 = getelementptr inbounds nuw i8, ptr %36, i64 16
  store ptr %30, ptr %41, align 8, !tbaa !10
  %42 = tail call ptr @lean_array_mk(ptr noundef nonnull %36) #4
  %43 = load ptr, ptr @l_Lean_Meta_mkInstCompleteLatticePProd___closed__2, align 8, !tbaa !10
  %44 = tail call ptr @l_Lean_Meta_mkAppOptM(ptr noundef %43, ptr noundef %42, ptr noundef %2, ptr noundef %3, ptr noundef %4, ptr noundef %5, ptr noundef %6) #4
  ret ptr %44
}